target datalayout = "e-m:e-p270:32:32-p271:32:32-p272:64:64-i64:64-i128:128-f80:128-n8:16:32:64-S128"
target triple = "x86_64-pc-linux-gnu"

%"struct.pxrInternal_v0_24__pxrReserved__::TsTest_SampleTimes::SampleTime" = type <{ double, i8, [7 x i8] }>

; Function Attrs: mustprogress nounwind uwtable
define noundef zeroext i1 @_ZNK32pxrInternal_v0_24__pxrReserved__18TsTest_SampleTimes10SampleTimeltERKS1_(ptr noundef nonnull align 8 dereferenceable(9) %0, ptr noundef nonnull align 8 dereferenceable(9) %1) #0 align 2 {
  %3 = alloca ptr, align 8
  %4 = alloca ptr, align 8
  store ptr %0, ptr %3, align 8
  store ptr %1, ptr %4, align 8
  %5 = load ptr, ptr %3, align 8
  %6 = getelementptr inbounds nuw %"struct.pxrInternal_v0_24__pxrReserved__::TsTest_SampleTimes::SampleTime", ptr %5, i32 0, i32 0
  %7 = load double, ptr %6, align 8
  %8 = load ptr, ptr %4, align 8
  %9 = getelementptr inbounds nuw %"struct.pxrInternal_v0_24__pxrReserved__::TsTest_SampleTimes::SampleTime", ptr %8, i32 0, i32 0
  %10 = load double, ptr %9, align 8
  %11 = fcmp olt double %7, %10
  br i1 %11, label %31, label %12

12:                                               ; preds = %2
  %13 = getelementptr inbounds nuw %"struct.pxrInternal_v0_24__pxrReserved__::TsTest_SampleTimes::SampleTime", ptr %5, i32 0, i32 0
  %14 = load double, ptr %13, align 8
  %15 = load ptr, ptr %4, align 8
  %16 = getelementptr inbounds nuw %"struct.pxrInternal_v0_24__pxrReserved__::TsTest_SampleTimes::SampleTime", ptr %15, i32 0, i32 0
  %17 = load double, ptr %16, align 8
  %18 = fcmp oeq double %14, %17
  br i1 %18, label %19, label %29

19:                                               ; preds = %12
  %20 = getelementptr inbounds nuw %"struct.pxrInternal_v0_24__pxrReserved__::TsTest_SampleTimes::SampleTime", ptr %5, i32 0, i32 1
  %21 = load i8, ptr %20, align 8
  %22 = trunc i8 %21 to i1
  br i1 %22, label %23, label %29

23:                                               ; preds = %19
  %24 = load ptr, ptr %4, align 8
  %25 = getelementptr inbounds nuw %"struct.pxrInternal_v0_24__pxrReserved__::TsTest_SampleTimes::SampleTime", ptr %24, i32 0, i32 1
  %26 = load i8, ptr %25, align 8
  %27 = trunc i8 %26 to i1
  %28 = xor i1 %27, true
  br label %29

29:                                               ; preds = %23, %19, %12
  %30 = phi i1 [ false, %19 ], [ false, %12 ], [ %28, %23 ]
  br label %31

31:                                               ; preds = %29, %2
  %32 = phi i1 [ true, %2 ], [ %30, %29 ]
  ret i1 %32
}