; Function Attrs: mustprogress nofree norecurse nosync nounwind willreturn memory(argmem: read) uwtable
define noundef zeroext i1 @_ZNK32pxrInternal_v0_24__pxrReserved__18TsTest_SampleTimes10SampleTimeltERKS1_(ptr nocapture noundef nonnull readonly align 8 dereferenceable(9) %0, ptr nocapture noundef nonnull readonly align 8 dereferenceable(9) %1) local_unnamed_addr #4 align 2 {
  %3 = load double, ptr %0, align 8
  %4 = load double, ptr %1, align 8
  %5 = fcmp olt double %3, %4
  br i1 %5, label %17, label %6

6:                                                ; preds = %2
  %7 = fcmp oeq double %3, %4
  br i1 %7, label %8, label %17

8:                                                ; preds = %6
  %9 = getelementptr inbounds nuw i8, ptr %0, i64 8
  %10 = load i8, ptr %9, align 8
  %11 = trunc i8 %10 to i1
  br i1 %11, label %12, label %17

12:                                               ; preds = %8
  %13 = getelementptr inbounds nuw i8, ptr %1, i64 8
  %14 = load i8, ptr %13, align 8
  %15 = trunc i8 %14 to i1
  %16 = xor i1 %15, true
  br label %17

17:                                               ; preds = %6, %8, %12, %2
  %18 = phi i1 [ true, %2 ], [ false, %8 ], [ false, %6 ], [ %16, %12 ]
  ret i1 %18
}